; Function Attrs: mustprogress uwtable
define internal noundef zeroext i1 @"_ZNSt17_Function_handlerIFvRKN2cv5RangeEEZNS0_3mcc20CCheckerDetectorImpl7processERKNS0_11_InputArrayENS5_9TYPECHARTERKSt6vectorINS0_5Rect_IiEESaISD_EEibRKNS0_3PtrINS5_18DetectorParametersEEEE3$_0E10_M_managerERSt9_Any_dataRKSP_St18_Manager_operation"(ptr noundef nonnull align 8 captures(none) dereferenceable(16) %0, ptr noundef nonnull readonly align 8 captures(none) dereferenceable(16) %1, i32 noundef %2) #3 align 2 {
  switch i32 %2, label %"_ZNSt14_Function_base13_Base_managerIZN2cv3mcc20CCheckerDetectorImpl7processERKNS1_11_InputArrayENS2_9TYPECHARTERKSt6vectorINS1_5Rect_IiEESaISA_EEibRKNS1_3PtrINS2_18DetectorParametersEEEE3$_0E10_M_managerERSt9_Any_dataRKSM_St18_Manager_operation.exit" [
    i32 0, label %4
    i32 1, label %5
    i32 3, label %8
    i32 2, label %6
  ]

4:                                                ; preds = %3
  store ptr @"_ZTIZN2cv3mcc20CCheckerDetectorImpl7processERKNS_11_InputArrayENS0_9TYPECHARTERKSt6vectorINS_5Rect_IiEESaIS8_EEibRKNS_3PtrINS0_18DetectorParametersEEEE3$_0", ptr %0, align 8, !tbaa !386
  br label %"_ZNSt14_Function_base13_Base_managerIZN2cv3mcc20CCheckerDetectorImpl7processERKNS1_11_InputArrayENS2_9TYPECHARTERKSt6vectorINS1_5Rect_IiEESaISA_EEibRKNS1_3PtrINS2_18DetectorParametersEEEE3$_0E10_M_managerERSt9_Any_dataRKSM_St18_Manager_operation.exit"

5:                                                ; preds = %3
  %.val = load ptr, ptr %1, align 8, !tbaa !89
  store ptr %.val, ptr %0, align 8, !tbaa !89
  br label %"_ZNSt14_Function_base13_Base_managerIZN2cv3mcc20CCheckerDetectorImpl7processERKNS1_11_InputArrayENS2_9TYPECHARTERKSt6vectorINS1_5Rect_IiEESaISA_EEibRKNS1_3PtrINS2_18DetectorParametersEEEE3$_0E10_M_managerERSt9_Any_dataRKSM_St18_Manager_operation.exit"

6:                                                ; preds = %3
  %.val6 = load ptr, ptr %1, align 8
  %7 = tail call noalias noundef nonnull dereferenceable(120) ptr @_Znwm(i64 noundef 120) #26
  tail call void @llvm.memcpy.p0.p0.i64(ptr noundef nonnull align 16 dereferenceable(120) %7, ptr noundef nonnull readonly align 8 dereferenceable(120) %.val6, i64 120, i1 false), !tbaa.struct !411
  store ptr %7, ptr %0, align 8, !tbaa !89
  br label %"_ZNSt14_Function_base13_Base_managerIZN2cv3mcc20CCheckerDetectorImpl7processERKNS1_11_InputArrayENS2_9TYPECHARTERKSt6vectorINS1_5Rect_IiEESaISA_EEibRKNS1_3PtrINS2_18DetectorParametersEEEE3$_0E10_M_managerERSt9_Any_dataRKSM_St18_Manager_operation.exit"

8:                                                ; preds = %3
  %.val7.i = load ptr, ptr %0, align 8, !tbaa !89
  %9 = icmp eq ptr %.val7.i, null
  br i1 %9, label %"_ZNSt14_Function_base13_Base_managerIZN2cv3mcc20CCheckerDetectorImpl7processERKNS1_11_InputArrayENS2_9TYPECHARTERKSt6vectorINS1_5Rect_IiEESaISA_EEibRKNS1_3PtrINS2_18DetectorParametersEEEE3$_0E10_M_managerERSt9_Any_dataRKSM_St18_Manager_operation.exit", label %10

10:                                               ; preds = %8
  tail call void @_ZdlPv(ptr noundef nonnull %.val7.i) #28
  br label %"_ZNSt14_Function_base13_Base_managerIZN2cv3mcc20CCheckerDetectorImpl7processERKNS1_11_InputArrayENS2_9TYPECHARTERKSt6vectorINS1_5Rect_IiEESaISA_EEibRKNS1_3PtrINS2_18DetectorParametersEEEE3$_0E10_M_managerERSt9_Any_dataRKSM_St18_Manager_operation.exit"

"_ZNSt14_Function_base13_Base_managerIZN2cv3mcc20CCheckerDetectorImpl7processERKNS1_11_InputArrayENS2_9TYPECHARTERKSt6vectorINS1_5Rect_IiEESaISA_EEibRKNS1_3PtrINS2_18DetectorParametersEEEE3$_0E10_M_managerERSt9_Any_dataRKSM_St18_Manager_operation.exit": ; preds = %3, %10, %8, %6, %5, %4
  ret i1 false
}